; ModuleID = 'source-C-CXX/51/140.c'
source_filename = "source-C-CXX/51/140.c"
target datalayout = "e-m:e-p270:32:32-p271:32:32-p272:64:64-i64:64-f80:128-n8:16:32:64-S128"
target triple = "x86_64-pc-linux-gnu"

@.str = private unnamed_addr constant [5 x i8] c"%d%d\00", align 1
@.str.1 = private unnamed_addr constant [3 x i8] c"%d\00", align 1
@.str.2 = private unnamed_addr constant [4 x i8] c"%d \00", align 1

; Function Attrs: nofree nounwind sspstrong uwtable
define dso_local i32 @main() local_unnamed_addr #0 {
  %1 = alloca i32, align 4
  %2 = alloca i32, align 4
  %3 = bitcast i32* %1 to i8*
  call void @llvm.lifetime.start.p0i8(i64 4, i8* nonnull %3) #5
  %4 = bitcast i32* %2 to i8*
  call void @llvm.lifetime.start.p0i8(i64 4, i8* nonnull %4) #5
  %5 = call i32 (i8*, ...) @__isoc99_scanf(i8* getelementptr inbounds ([5 x i8], [5 x i8]* @.str, i64 0, i64 0), i32* nonnull %1, i32* nonnull %2)
  %6 = load i32, i32* %1, align 4, !tbaa !5
  %7 = sext i32 %6 to i64
  %8 = shl nsw i64 %7, 2
  %9 = call noalias align 16 i8* @malloc(i64 %8) #5
  %10 = bitcast i8* %9 to i32*
  %11 = icmp sgt i32 %6, 0
  br i1 %11, label %12, label %20

12:                                               ; preds = %0, %12
  %13 = phi i64 [ %16, %12 ], [ 0, %0 ]
  %14 = getelementptr inbounds i32, i32* %10, i64 %13
  %15 = call i32 (i8*, ...) @__isoc99_scanf(i8* getelementptr inbounds ([3 x i8], [3 x i8]* @.str.1, i64 0, i64 0), i32* %14)
  %16 = add nuw nsw i64 %13, 1
  %17 = load i32, i32* %1, align 4, !tbaa !5
  %18 = sext i32 %17 to i64
  %19 = icmp slt i64 %16, %18
  br i1 %19, label %12, label %20, !llvm.loop !9

20:                                               ; preds = %12, %0
  %21 = phi i32 [ %6, %0 ], [ %17, %12 ]
  %22 = load i32, i32* %2, align 4, !tbaa !5
  %23 = sub i32 %21, %22
  %24 = icmp slt i32 %23, %21
  br i1 %24, label %25, label %29

25:                                               ; preds = %20
  %26 = sext i32 %23 to i64
  br label %33

27:                                               ; preds = %33
  %28 = load i32, i32* %2, align 4, !tbaa !5
  br label %29

29:                                               ; preds = %27, %20
  %30 = phi i32 [ %28, %27 ], [ %22, %20 ]
  %31 = phi i32 [ %39, %27 ], [ %21, %20 ]
  %32 = icmp sgt i32 %31, %30
  br i1 %32, label %42, label %64

33:                                               ; preds = %25, %33
  %34 = phi i64 [ %26, %25 ], [ %38, %33 ]
  %35 = getelementptr inbounds i32, i32* %10, i64 %34
  %36 = load i32, i32* %35, align 4, !tbaa !5
  %37 = call i32 (i8*, ...) @printf(i8* nonnull dereferenceable(1) getelementptr inbounds ([4 x i8], [4 x i8]* @.str.2, i64 0, i64 0), i32 %36)
  %38 = add nsw i64 %34, 1
  %39 = load i32, i32* %1, align 4, !tbaa !5
  %40 = sext i32 %39 to i64
  %41 = icmp slt i64 %38, %40
  br i1 %41, label %33, label %27, !llvm.loop !11

42:                                               ; preds = %29, %57
  %43 = phi i64 [ %60, %57 ], [ 0, %29 ]
  %44 = getelementptr inbounds i32, i32* %10, i64 %43
  %45 = load i32, i32* %44, align 4, !tbaa !5
  %46 = call i32 (i8*, ...) @printf(i8* nonnull dereferenceable(1) getelementptr inbounds ([3 x i8], [3 x i8]* @.str.1, i64 0, i64 0), i32 %45)
  %47 = load i32, i32* %1, align 4, !tbaa !5
  %48 = load i32, i32* %2, align 4, !tbaa !5
  %49 = xor i32 %48, -1
  %50 = add i32 %47, %49
  %51 = zext i32 %50 to i64
  %52 = icmp eq i64 %43, %51
  br i1 %52, label %57, label %53

53:                                               ; preds = %42
  %54 = call i32 @putchar(i32 32)
  %55 = load i32, i32* %1, align 4, !tbaa !5
  %56 = load i32, i32* %2, align 4, !tbaa !5
  br label %57

57:                                               ; preds = %42, %53
  %58 = phi i32 [ %48, %42 ], [ %56, %53 ]
  %59 = phi i32 [ %47, %42 ], [ %55, %53 ]
  %60 = add nuw nsw i64 %43, 1
  %61 = sub nsw i32 %59, %58
  %62 = sext i32 %61 to i64
  %63 = icmp slt i64 %60, %62
  br i1 %63, label %42, label %64, !llvm.loop !12

64:                                               ; preds = %57, %29
  call void @llvm.lifetime.end.p0i8(i64 4, i8* nonnull %4) #5
  call void @llvm.lifetime.end.p0i8(i64 4, i8* nonnull %3) #5
  ret i32 0
}

; Function Attrs: argmemonly mustprogress nofree nosync nounwind willreturn
declare void @llvm.lifetime.start.p0i8(i64 immarg, i8* nocapture) #1

; Function Attrs: nofree nounwind
declare noundef i32 @__isoc99_scanf(i8* nocapture noundef readonly, ...) local_unnamed_addr #2

; Function Attrs: inaccessiblememonly mustprogress nofree nounwind willreturn
declare noalias noundef align 16 i8* @malloc(i64 noundef) local_unnamed_addr #3

; Function Attrs: nofree nounwind
declare noundef i32 @printf(i8* nocapture noundef readonly, ...) local_unnamed_addr #2

; Function Attrs: argmemonly mustprogress nofree nosync nounwind willreturn
declare void @llvm.lifetime.end.p0i8(i64 immarg, i8* nocapture) #1

; Function Attrs: nofree nounwind
declare noundef i32 @putchar(i32 noundef) local_unnamed_addr #4


!llvm.module.flags = !{!0, !1, !2, !3}
!llvm.ident = !{!4}

!0 = !{i32 1, !"wchar_size", i32 4}
!1 = !{i32 7, !"PIC Level", i32 2}
!2 = !{i32 7, !"PIE Level", i32 2}
!3 = !{i32 7, !"uwtable", i32 1}
!4 = !{!"clang version 13.0.0"}
!5 = !{!6, !6, i64 0}
!6 = !{!"int", !7, i64 0}
!7 = !{!"omnipotent char", !8, i64 0}
!8 = !{!"Simple C/C++ TBAA"}
!9 = distinct !{!9, !10}
!10 = !{!"llvm.loop.mustprogress"}
!11 = distinct !{!11, !10}
!12 = distinct !{!12, !10}
